; ModuleID = '28/114.c'
source_filename = "28/114.c"
target datalayout = "e-m:e-p270:32:32-p271:32:32-p272:64:64-i64:64-f80:128-n8:16:32:64-S128"
target triple = "x86_64-pc-linux-gnu"

@.str = private unnamed_addr constant [3 x i8] c"%d\00", align 1
@.str.1 = private unnamed_addr constant [4 x i8] c",%d\00", align 1

; Function Attrs: noinline nounwind uwtable
define dso_local void @main() #0 {
  %1 = alloca [3000 x i8], align 16
  %2 = alloca i32, align 4
  %3 = alloca i32, align 4
  %4 = alloca [300 x i32], align 16
  %5 = alloca i32, align 4
  %6 = bitcast [300 x i32]* %4 to i8*
  call void @llvm.memset.p0i8.i64(i8* align 16 %6, i8 0, i64 1200, i1 false)
  store i32 0, i32* %5, align 4
  %7 = getelementptr inbounds [3000 x i8], [3000 x i8]* %1, i64 0, i64 0
  %8 = call i32 (i8*, ...) bitcast (i32 (...)* @gets to i32 (i8*, ...)*)(i8* %7)
  %9 = getelementptr inbounds [3000 x i8], [3000 x i8]* %1, i64 0, i64 0
  %10 = call i64 @strlen(i8* %9) #4
  %11 = trunc i64 %10 to i32
  store i32 %11, i32* %3, align 4
  store i32 0, i32* %2, align 4
  br label %12

12:                                               ; preds = %33, %0
  %13 = load i32, i32* %2, align 4
  %14 = load i32, i32* %3, align 4
  %15 = icmp slt i32 %13, %14
  br i1 %15, label %16, label %36

16:                                               ; preds = %12
  %17 = load i32, i32* %2, align 4
  %18 = sext i32 %17 to i64
  %19 = getelementptr inbounds [3000 x i8], [3000 x i8]* %1, i64 0, i64 %18
  %20 = load i8, i8* %19, align 1
  %21 = sext i8 %20 to i32
  %22 = icmp eq i32 %21, 32
  br i1 %22, label %23, label %26

23:                                               ; preds = %16
  %24 = load i32, i32* %5, align 4
  %25 = add nsw i32 %24, 1
  store i32 %25, i32* %5, align 4
  br label %32

26:                                               ; preds = %16
  %27 = load i32, i32* %5, align 4
  %28 = sext i32 %27 to i64
  %29 = getelementptr inbounds [300 x i32], [300 x i32]* %4, i64 0, i64 %28
  %30 = load i32, i32* %29, align 4
  %31 = add nsw i32 %30, 1
  store i32 %31, i32* %29, align 4
  br label %32

32:                                               ; preds = %26, %23
  br label %33

33:                                               ; preds = %32
  %34 = load i32, i32* %2, align 4
  %35 = add nsw i32 %34, 1
  store i32 %35, i32* %2, align 4
  br label %12

36:                                               ; preds = %12
  %37 = getelementptr inbounds [300 x i32], [300 x i32]* %4, i64 0, i64 0
  %38 = load i32, i32* %37, align 16
  %39 = call i32 (i8*, ...) @printf(i8* getelementptr inbounds ([3 x i8], [3 x i8]* @.str, i64 0, i64 0), i32 %38)
  store i32 1, i32* %2, align 4
  br label %40

40:                                               ; preds = %57, %36
  %41 = load i32, i32* %2, align 4
  %42 = load i32, i32* %5, align 4
  %43 = icmp sle i32 %41, %42
  br i1 %43, label %44, label %60

44:                                               ; preds = %40
  %45 = load i32, i32* %2, align 4
  %46 = sext i32 %45 to i64
  %47 = getelementptr inbounds [300 x i32], [300 x i32]* %4, i64 0, i64 %46
  %48 = load i32, i32* %47, align 4
  %49 = icmp ne i32 %48, 0
  br i1 %49, label %50, label %56

50:                                               ; preds = %44
  %51 = load i32, i32* %2, align 4
  %52 = sext i32 %51 to i64
  %53 = getelementptr inbounds [300 x i32], [300 x i32]* %4, i64 0, i64 %52
  %54 = load i32, i32* %53, align 4
  %55 = call i32 (i8*, ...) @printf(i8* getelementptr inbounds ([4 x i8], [4 x i8]* @.str.1, i64 0, i64 0), i32 %54)
  br label %56

56:                                               ; preds = %50, %44
  br label %57

57:                                               ; preds = %56
  %58 = load i32, i32* %2, align 4
  %59 = add nsw i32 %58, 1
  store i32 %59, i32* %2, align 4
  br label %40

60:                                               ; preds = %40
  ret void
}

; Function Attrs: argmemonly nounwind willreturn
declare void @llvm.memset.p0i8.i64(i8* nocapture writeonly, i8, i64, i1 immarg) #1

declare dso_local i32 @gets(...) #2

; Function Attrs: nounwind readonly
declare dso_local i64 @strlen(i8*) #3

declare dso_local i32 @printf(i8*, ...) #2


!llvm.module.flags = !{!0}
!llvm.ident = !{!1}

!0 = !{i32 1, !"wchar_size", i32 4}
!1 = !{!"clang version 10.0.0-4ubuntu1 "}
